target datalayout = "e-m:e-p270:32:32-p271:32:32-p272:64:64-i64:64-i128:128-f80:128-n8:16:32:64-S128"
target triple = "x86_64-pc-linux-gnu"

%"class.cv::xfeatures2d::StarDetectorImpl" = type <{ %"class.cv::xfeatures2d::StarDetector", i32, i32, i32, i32, i32, [4 x i8] }>
%"class.cv::xfeatures2d::StarDetector" = type { %"class.cv::Feature2D" }
%"class.cv::Feature2D" = type { %"class.cv::Algorithm" }
%"class.cv::Algorithm" = type { ptr }

; Function Attrs: inlinehint mustprogress nounwind uwtable
define linkonce_odr hidden void @_ZN2cv9Feature2DC2Ev(ptr noundef nonnull align 8 dereferenceable(8) %0, ptr noundef %1) unnamed_addr #3 comdat align 2 {
  %3 = alloca ptr, align 8
  %4 = alloca ptr, align 8
  store ptr %0, ptr %3, align 8, !tbaa !153
  store ptr %1, ptr %4, align 8, !tbaa !39
  %5 = load ptr, ptr %3, align 8
  %6 = load ptr, ptr %4, align 8
  %7 = load ptr, ptr %6, align 8
  store ptr %7, ptr %5, align 8, !tbaa !18
  %8 = getelementptr inbounds ptr, ptr %6, i64 1
  %9 = load ptr, ptr %8, align 8
  %10 = load ptr, ptr %5, align 8, !tbaa !18
  %11 = getelementptr i8, ptr %10, i64 -80
  %12 = load i64, ptr %11, align 8
  %13 = getelementptr inbounds i8, ptr %5, i64 %12
  store ptr %9, ptr %13, align 8, !tbaa !18
  ret void
}

; Function Attrs: inlinehint mustprogress uwtable
define linkonce_odr hidden void @_ZN2cv11xfeatures2d12StarDetectorC2Ev(ptr noundef nonnull align 8 dereferenceable(8) %0, ptr noundef %1) unnamed_addr #2 comdat align 2 {
  %3 = alloca ptr, align 8
  %4 = alloca ptr, align 8
  store ptr %0, ptr %3, align 8, !tbaa !37
  store ptr %1, ptr %4, align 8, !tbaa !39
  %5 = load ptr, ptr %3, align 8
  %6 = load ptr, ptr %4, align 8
  %7 = getelementptr inbounds ptr, ptr %6, i64 1
  call void @_ZN2cv9Feature2DC2Ev(ptr noundef nonnull align 8 dereferenceable(8) %5, ptr noundef %7)
  %8 = load ptr, ptr %6, align 8
  store ptr %8, ptr %5, align 8, !tbaa !18
  %9 = getelementptr inbounds ptr, ptr %6, i64 3
  %10 = load ptr, ptr %9, align 8
  %11 = load ptr, ptr %5, align 8, !tbaa !18
  %12 = getelementptr i8, ptr %11, i64 -80
  %13 = load i64, ptr %12, align 8
  %14 = getelementptr inbounds i8, ptr %5, i64 %13
  store ptr %10, ptr %14, align 8, !tbaa !18
  ret void
}

; Function Attrs: mustprogress uwtable
define hidden void @_ZN2cv11xfeatures2d16StarDetectorImplC2Eiiiii(ptr noundef nonnull align 8 dereferenceable(28) %0, ptr noundef %1, i32 noundef %2, i32 noundef %3, i32 noundef %4, i32 noundef %5, i32 noundef %6) unnamed_addr #0 align 2 {
  %8 = alloca ptr, align 8
  %9 = alloca ptr, align 8
  %10 = alloca i32, align 4
  %11 = alloca i32, align 4
  %12 = alloca i32, align 4
  %13 = alloca i32, align 4
  %14 = alloca i32, align 4
  store ptr %0, ptr %8, align 8, !tbaa !14
  store ptr %1, ptr %9, align 8, !tbaa !39
  store i32 %2, ptr %10, align 4, !tbaa !3
  store i32 %3, ptr %11, align 4, !tbaa !3
  store i32 %4, ptr %12, align 4, !tbaa !3
  store i32 %5, ptr %13, align 4, !tbaa !3
  store i32 %6, ptr %14, align 4, !tbaa !3
  %15 = load ptr, ptr %8, align 8
  %16 = load ptr, ptr %9, align 8
  %17 = getelementptr inbounds ptr, ptr %16, i64 1
  call void @_ZN2cv11xfeatures2d12StarDetectorC2Ev(ptr noundef nonnull align 8 dereferenceable(8) %15, ptr noundef %17)
  %18 = load ptr, ptr %16, align 8
  store ptr %18, ptr %15, align 8, !tbaa !18
  %19 = getelementptr inbounds ptr, ptr %16, i64 5
  %20 = load ptr, ptr %19, align 8
  %21 = load ptr, ptr %15, align 8, !tbaa !18
  %22 = getelementptr i8, ptr %21, i64 -80
  %23 = load i64, ptr %22, align 8
  %24 = getelementptr inbounds i8, ptr %15, i64 %23
  store ptr %20, ptr %24, align 8, !tbaa !18
  %25 = getelementptr inbounds nuw %"class.cv::xfeatures2d::StarDetectorImpl", ptr %15, i32 0, i32 1
  %26 = load i32, ptr %10, align 4, !tbaa !3
  store i32 %26, ptr %25, align 8, !tbaa !41
  %27 = getelementptr inbounds nuw %"class.cv::xfeatures2d::StarDetectorImpl", ptr %15, i32 0, i32 2
  %28 = load i32, ptr %11, align 4, !tbaa !3
  store i32 %28, ptr %27, align 4, !tbaa !45
  %29 = getelementptr inbounds nuw %"class.cv::xfeatures2d::StarDetectorImpl", ptr %15, i32 0, i32 3
  %30 = load i32, ptr %12, align 4, !tbaa !3
  store i32 %30, ptr %29, align 8, !tbaa !46
  %31 = getelementptr inbounds nuw %"class.cv::xfeatures2d::StarDetectorImpl", ptr %15, i32 0, i32 4
  %32 = load i32, ptr %13, align 4, !tbaa !3
  store i32 %32, ptr %31, align 4, !tbaa !47
  %33 = getelementptr inbounds nuw %"class.cv::xfeatures2d::StarDetectorImpl", ptr %15, i32 0, i32 5
  %34 = load i32, ptr %14, align 4, !tbaa !3
  store i32 %34, ptr %33, align 8, !tbaa !48
  ret void
}