; Function Attrs: mustprogress nofree norecurse nosync nounwind willreturn memory(read, argmem: readwrite, inaccessiblemem: none) uwtable
define hidden void @_ZN2cv11xfeatures2d16StarDetectorImplC2Eiiiii(ptr noundef nonnull writeonly align 8 captures(none) dereferenceable(28) initializes((0, 28)) %0, ptr noundef readonly captures(none) %1, i32 noundef %2, i32 noundef %3, i32 noundef %4, i32 noundef %5, i32 noundef %6) unnamed_addr #4 align 2 {
  %8 = getelementptr inbounds nuw i8, ptr %1, i64 8
  %9 = getelementptr inbounds nuw i8, ptr %1, i64 16
  %10 = load ptr, ptr %9, align 8
  store ptr %10, ptr %0, align 8, !tbaa !14
  %11 = getelementptr inbounds nuw i8, ptr %1, i64 24
  %12 = load ptr, ptr %11, align 8
  %13 = getelementptr i8, ptr %10, i64 -80
  %14 = load i64, ptr %13, align 8
  %15 = getelementptr inbounds i8, ptr %0, i64 %14
  store ptr %12, ptr %15, align 8, !tbaa !14
  %16 = load ptr, ptr %8, align 8
  store ptr %16, ptr %0, align 8, !tbaa !14
  %17 = getelementptr inbounds nuw i8, ptr %1, i64 32
  %18 = load ptr, ptr %17, align 8
  %19 = getelementptr i8, ptr %16, i64 -80
  %20 = load i64, ptr %19, align 8
  %21 = getelementptr inbounds i8, ptr %0, i64 %20
  store ptr %18, ptr %21, align 8, !tbaa !14
  %22 = load ptr, ptr %1, align 8
  store ptr %22, ptr %0, align 8, !tbaa !14
  %23 = getelementptr inbounds nuw i8, ptr %1, i64 40
  %24 = load ptr, ptr %23, align 8
  %25 = getelementptr i8, ptr %22, i64 -80
  %26 = load i64, ptr %25, align 8
  %27 = getelementptr inbounds i8, ptr %0, i64 %26
  store ptr %24, ptr %27, align 8, !tbaa !14
  %28 = getelementptr inbounds nuw i8, ptr %0, i64 8
  store i32 %2, ptr %28, align 8, !tbaa !16
  %29 = getelementptr inbounds nuw i8, ptr %0, i64 12
  store i32 %3, ptr %29, align 4, !tbaa !20
  %30 = getelementptr inbounds nuw i8, ptr %0, i64 16
  store i32 %4, ptr %30, align 8, !tbaa !21
  %31 = getelementptr inbounds nuw i8, ptr %0, i64 20
  store i32 %5, ptr %31, align 4, !tbaa !22
  %32 = getelementptr inbounds nuw i8, ptr %0, i64 24
  store i32 %6, ptr %32, align 8, !tbaa !23
  ret void
}